; Function Attrs: nounwind uwtable
define internal range(i32 0, 62) i32 @gzip_do_init(ptr noundef %0, ptr noundef initializes((16488, 16504)) %1) #0 {
  %3 = tail call ptr @zlibVersion() #8
  %4 = getelementptr inbounds nuw i8, ptr %1, i64 16488
  store ptr @zalloc_cb, ptr %4, align 8, !tbaa !90
  %5 = getelementptr inbounds nuw i8, ptr %1, i64 16496
  store ptr @zfree_cb, ptr %5, align 8, !tbaa !93
  %6 = tail call i32 @strcmp(ptr noundef nonnull dereferenceable(1) %3, ptr noundef nonnull dereferenceable(8) @.str.17) #9
  %7 = icmp sgt i32 %6, -1
  br i1 %7, label %8, label %17

8:                                                ; preds = %2
  %9 = getelementptr inbounds nuw i8, ptr %1, i64 16424
  %10 = tail call i32 @inflateInit2_(ptr noundef nonnull %9, i32 noundef 47, ptr noundef nonnull @.str.12, i32 noundef 112) #8
  %.not = icmp eq i32 %10, 0
  br i1 %.not, label %15, label %11

11:                                               ; preds = %8
  %12 = getelementptr i8, ptr %1, i64 16472
  %.val = load ptr, ptr %12, align 8, !tbaa !94
  %.not.i = icmp eq ptr %.val, null
  br i1 %.not.i, label %14, label %13

13:                                               ; preds = %11
  tail call void (ptr, ptr, ...) @Curl_failf(ptr noundef %0, ptr noundef nonnull @.str.13, ptr noundef nonnull %.val) #8
  br label %process_zlib_error.exit

14:                                               ; preds = %11
  tail call void (ptr, ptr, ...) @Curl_failf(ptr noundef %0, ptr noundef nonnull @.str.14) #8
  br label %process_zlib_error.exit

15:                                               ; preds = %8
  %16 = getelementptr inbounds nuw i8, ptr %1, i64 32
  store i32 4, ptr %16, align 8, !tbaa !95
  br label %process_zlib_error.exit

17:                                               ; preds = %2
  tail call void (ptr, ptr, ...) @Curl_failf(ptr noundef %0, ptr noundef nonnull @.str.18, ptr noundef nonnull %3) #8
  br label %process_zlib_error.exit

process_zlib_error.exit:                          ; preds = %14, %13, %15, %17
  %.0 = phi i32 [ 0, %15 ], [ 2, %17 ], [ 61, %13 ], [ 61, %14 ]
  ret i32 %.0
}